ccopy_reg
_reconstructor
p1
(cdebian_linux.config
ConfigCore
p2
c__builtin__
dict
p3
(dp4
(S'image'
p5
S'amd64'
p6
tp7
(dp8
S'suggests'
p9
S'grub2 | grub-gfxboot | grub-legacy, crda'
p10
sS'configs'
p11
(lp12
S'kernelarch-x86/config-arch-64'
p13
ass(S'base'
p14
g6
S'none'
p15
tp16
(dp17
S'implicit-flavour'
p18
I01
sS'flavours'
p19
(lp20
S'vclaptop-amd64'
p21
ass(S'commands-image-initramfs-generators'
p22
tp23
(dp24
S'initramfs-tools'
p25
S'update-initramfs'
p26
ss(S'abi'
p27
tp28
(dp29
S'abiname'
p30
S'2'
ss(S'base'
p31
g6
tp32
(dp33
S'kernel-arch'
p34
S'x86'
p35
sS'featuresets'
p36
(lp37
g15
ass(S'description'
g6
NS'vclaptop-amd64'
tp38
(dp39
S'hardware'
p40
S'64-bit PCs'
p41
sS'hardware-long'
p42
S'PCs with AMD64 or Intel 64 processors'
p43
ss(S'image'
p44
tp45
(dp46
S'initramfs-generators'
p47
(lp48
S'initramfs-tools'
p49
aS'initramfs-fallback'
p50
asS'type'
p51
S'plain'
p52
ss(S'base'
p53
tp54
(dp55
S'arches'
p56
(lp57
S'amd64'
p58
asS'featuresets'
p59
(lp60
S'none'
p61
asS'compiler'
p62
S'gcc-4.9'
p63
ss(S'image'
g6
NS'vclaptop-amd64'
tp64
(dp65
S'configs'
p66
(lp67
S'kernelarch-x86/config-arch-64'
p68
ass(S'version'
p69
tp70
(dp71
S'abiname'
p72
S'3.15-2'
p73
sS'source'
p74
V3.15.2-1
p75
ss(S'relations'
p76
tp77
(dp78
S'initramfs-fallback'
p79
S'linux-initramfs-tool'
p80
sS'gcc-4.9'
p81
S'gcc-4.9'
p82
sS'initramfs-tools'
p83
S'initramfs-tools'
p84
sstRp85
.