ccopy_reg
_reconstructor
p1
(cdebian_linux.config
ConfigCore
p2
c__builtin__
dict
p3
(dp4
(S'image'
S'amd64'
p5
tp6
(dp7
S'suggests'
p8
S'grub2 | grub-gfxboot | grub-legacy, crda'
p9
sS'configs'
p10
(lp11
S'kernelarch-x86/config-arch-64'
p12
ass(S'description'
g5
NS'vclaptop-amd64'
tp13
(dp14
S'hardware'
p15
S'64-bit PCs'
p16
sS'hardware-long'
p17
S'PCs with AMD64 or Intel 64 processors'
p18
ss(S'base'
tp19
(dp20
S'arches'
p21
(lp22
S'amd64'
p23
asS'featuresets'
p24
(lp25
S'none'
p26
asS'compiler'
p27
S'gcc-4.7'
p28
ss(S'commands-image-initramfs-generators'
tp29
(dp30
S'initramfs-tools'
p31
S'update-initramfs'
p32
ss(S'abi'
tp33
(dp34
S'abiname'
p35
S'1'
ss(S'base'
g5
tp36
(dp37
S'kernel-arch'
p38
S'x86'
p39
sS'featuresets'
p40
(lp41
S'none'
p42
ass(S'image'
tp43
(dp44
S'initramfs-generators'
p45
(lp46
S'initramfs-tools'
p47
aS'initramfs-fallback'
p48
asS'type'
p49
S'plain'
p50
ss(S'base'
p51
g5
g42
tp52
(dp53
S'implicit-flavour'
p54
I01
sS'flavours'
p55
(lp56
S'vclaptop-amd64'
p57
ass(S'image'
g5
NS'vclaptop-amd64'
tp58
(dp59
S'configs'
p60
(lp61
S'kernelarch-x86/config-arch-64'
p62
ass(S'relations'
tp63
(dp64
S'initramfs-fallback'
p65
S'linux-initramfs-tool'
p66
sS'gcc-4.7'
p67
S'gcc-4.7'
p68
sS'initramfs-tools'
p69
S'initramfs-tools'
p70
ss(S'version'
p71
tp72
(dp73
S'abiname'
p74
S'3.8.13-1'
p75
sS'source'
p76
V3.8.13-1
p77
sstRp78
.