ccopy_reg
_reconstructor
p1
(cdebian_linux.config
ConfigCore
p2
c__builtin__
dict
p3
(dp4
(S'description'
S'amd64'
p5
NS'vclaptop-amd64'
tp6
(dp7
S'hardware'
p8
S'64-bit PCs'
p9
sS'hardware-long'
p10
S'PCs with AMD64 or Intel 64 processors'
p11
ss(S'base'
p12
g5
S'none'
p13
tp14
(dp15
S'implicit-flavour'
p16
I01
sS'flavours'
p17
(lp18
S'vclaptop-amd64'
p19
ass(S'commands-image-initramfs-generators'
tp20
(dp21
S'initramfs-tools'
p22
S'update-initramfs'
p23
ss(S'abi'
tp24
(dp25
S'abiname'
p26
S'1'
ss(S'base'
g5
tp27
(dp28
S'kernel-arch'
p29
S'x86'
p30
sS'featuresets'
p31
(lp32
g13
ass(S'image'
tp33
(dp34
S'initramfs-generators'
p35
(lp36
S'initramfs-tools'
p37
aS'initramfs-fallback'
p38
asS'type'
p39
S'plain'
p40
ss(S'image'
g5
tp41
(dp42
S'suggests'
p43
S'grub2 | grub-gfxboot | grub-legacy, crda'
p44
sS'configs'
p45
(lp46
S'kernelarch-x86/config-arch-64'
p47
ass(S'image'
g5
NS'vclaptop-amd64'
tp48
(dp49
S'configs'
p50
(lp51
S'kernelarch-x86/config-arch-64'
p52
ass(S'base'
tp53
(dp54
S'arches'
p55
(lp56
S'amd64'
p57
asS'featuresets'
p58
(lp59
S'none'
p60
asS'compiler'
p61
S'gcc-4.7'
p62
ss(S'relations'
tp63
(dp64
S'initramfs-fallback'
p65
S'linux-initramfs-tool'
p66
sS'gcc-4.7'
p67
S'gcc-4.7'
p68
sS'initramfs-tools'
p69
S'initramfs-tools'
p70
ss(S'version'
p71
tp72
(dp73
S'abiname'
p74
S'3.9-1'
p75
sS'source'
p76
V3.9.11-1
p77
sstRp78
.