ccopy_reg
_reconstructor
p0
(cdebian_linux.config
ConfigCore
p1
c__builtin__
dict
p2
(dp3
(S'image'
p4
S'amd64'
p5
tp6
(dp7
S'install-stem'
p8
S'vmlinuz'
p9
sS'configs'
p10
(lp11
sS'bootloaders'
p12
(lp13
S'grub-pc'
p14
aS'extlinux'
p15
aS'grub-efi-amd64'
p16
asS'suggests'
p17
S'crda'
p18
ss(S'base'
p19
g5
S'none'
p20
tp21
(dp22
S'implicit-flavour'
p23
I01
sS'flavours'
p24
(lp25
S'vclaptop-amd64'
p26
ass(S'image'
p27
g5
NS'vclaptop-amd64'
p28
tp29
(dp30
S'configs'
p31
(lp32
S'kernelarch-x86/config-arch-64'
p33
ass(S'base'
p34
g5
tp35
(dp36
S'kernel-arch'
p37
S'x86'
p38
sS'featuresets'
p39
(lp40
S'none'
p41
ag20
ass(S'image'
p42
tp43
(dp44
S'initramfs-generators'
p45
(lp46
S'initramfs-tools'
p47
aS'initramfs-fallback'
p48
asS'type'
p49
S'plain'
p50
ss(S'description'
p51
tp52
(dp53
S'part-long-up'
p54
S'This kernel is not suitable for SMP (multi-processor,\nmulti-core or hyper-threaded) systems.'
p55
sS'part-long-xen'
p56
S'This kernel also runs on a Xen hypervisor.\nIt supports both privileged (dom0) and unprivileged (domU) operation.'
p57
ss(S'abi'
p58
tp59
(dp60
S'abiname'
p61
S'4'
p62
ss(S'description'
p63
g5
NS'vclaptop-amd64'
p64
tp65
(dp66
S'hardware'
p67
S'64-bit PCs'
p68
sS'hardware-long'
p69
S'PCs with AMD64 or Intel 64 processors'
p70
ss(S'base'
p71
tp72
(dp73
S'arches'
p74
(lp75
S'amd64'
p76
asS'featuresets'
p77
(lp78
S'none'
p79
asS'compiler'
p80
S'gcc-4.9'
p81
ss(S'relations'
p82
tp83
(dp84
S'initramfs-fallback'
p85
S'linux-initramfs-tool'
p86
sS'gcc-4.9'
p87
S'gcc-4.9'
p88
sS'initramfs-tools'
p89
S'initramfs-tools'
p90
ss(S'version'
p91
tp92
(dp93
S'abiname'
p94
S'4.0-4'
p95
sS'source'
p96
V4.0.4-1
p97
sS'upstream'
p98
S'4.0'
p99
ss(S'build'
p100
g5
tp101
(dp102
S'debug-info'
p103
I00
sS'image-file'
p104
S'arch/x86/boot/bzImage'
p105
sstp106
Rp107
.