ccopy_reg
_reconstructor
p1
(cdebian_linux.config
ConfigCore
p2
c__builtin__
dict
p3
(dp4
(S'image'
S'amd64'
p5
tp6
(dp7
S'suggests'
p8
S'grub2 | grub-gfxboot | grub-legacy, crda'
p9
sS'configs'
p10
(lp11
S'kernelarch-x86/config-arch-64'
p12
ass(S'image'
g5
NS'vclaptop-amd64'
tp13
(dp14
S'configs'
p15
(lp16
S'kernelarch-x86/config-arch-64'
p17
ass(S'base'
p18
g5
S'none'
p19
tp20
(dp21
S'implicit-flavour'
p22
I01
sS'flavours'
p23
(lp24
S'vclaptop-amd64'
p25
ass(S'commands-image-initramfs-generators'
tp26
(dp27
S'initramfs-tools'
p28
S'update-initramfs'
p29
ss(S'abi'
tp30
(dp31
S'abiname'
p32
S'5'
ss(S'base'
g5
tp33
(dp34
S'kernel-arch'
p35
S'x86'
p36
sS'featuresets'
p37
(lp38
g19
ass(S'image'
tp39
(dp40
S'initramfs-generators'
p41
(lp42
S'initramfs-tools'
p43
aS'initramfs-fallback'
p44
asS'type'
p45
S'plain'
p46
ss(S'description'
g5
NS'vclaptop-amd64'
tp47
(dp48
S'hardware'
p49
S'64-bit PCs'
p50
sS'hardware-long'
p51
S'PCs with AMD64 or Intel 64 processors'
p52
ss(S'base'
tp53
(dp54
S'arches'
p55
(lp56
S'amd64'
p57
asS'featuresets'
p58
(lp59
S'none'
p60
asS'compiler'
p61
S'gcc-4.8'
p62
ss(S'relations'
tp63
(dp64
S'initramfs-fallback'
p65
S'linux-initramfs-tool'
p66
sS'gcc-4.8'
p67
S'gcc-4.8'
p68
sS'initramfs-tools'
p69
S'initramfs-tools'
p70
ss(S'version'
p71
tp72
(dp73
S'abiname'
p74
S'3.12-5'
p75
sS'source'
p76
V3.12.5-1
p77
sstRp78
.