ccopy_reg
_reconstructor
p0
(cdebian_linux.config
ConfigCore
p1
c__builtin__
dict
p2
(dp3
(S'image'
p4
S'amd64'
p5
tp6
(dp7
S'install-stem'
p8
S'vmlinuz'
p9
sS'configs'
p10
(lp11
sS'bootloaders'
p12
(lp13
S'grub-pc'
p14
aS'extlinux'
p15
aS'grub-efi-amd64'
p16
asS'suggests'
p17
S'crda'
p18
ss(S'base'
p19
g5
S'none'
p20
tp21
(dp22
S'implicit-flavour'
p23
I01
sS'flavours'
p24
(lp25
S'vclaptop-amd64'
p26
ass(S'image'
p27
g5
NS'vclaptop-amd64'
p28
tp29
(dp30
S'configs'
p31
(lp32
S'kernelarch-x86/config-arch-64'
p33
ass(S'abi'
p34
tp35
(dp36
S'abiname'
p37
S'3'
p38
ss(S'base'
p39
g5
tp40
(dp41
S'kernel-arch'
p42
S'x86'
p43
sS'featuresets'
p44
(lp45
S'none'
p46
ag20
ass(S'image'
p47
tp48
(dp49
S'initramfs-generators'
p50
(lp51
S'initramfs-tools'
p52
aS'initramfs-fallback'
p53
asS'type'
p54
S'plain'
p55
ss(S'description'
p56
tp57
(dp58
S'part-long-up'
p59
S'This kernel is not suitable for SMP (multi-processor,\nmulti-core or hyper-threaded) systems.'
p60
sS'part-long-xen'
p61
S'This kernel also runs on a Xen hypervisor.\nIt supports both privileged (dom0) and unprivileged (domU) operation.'
p62
ss(S'build'
p63
g5
tp64
(dp65
S'debug-info'
p66
I00
sS'image-file'
p67
S'arch/x86/boot/bzImage'
p68
ss(S'description'
p69
g5
NS'vclaptop-amd64'
p70
tp71
(dp72
S'hardware'
p73
S'64-bit PCs'
p74
sS'hardware-long'
p75
S'PCs with AMD64 or Intel 64 processors'
p76
ss(S'base'
p77
tp78
(dp79
S'arches'
p80
(lp81
S'amd64'
p82
asS'featuresets'
p83
(lp84
S'none'
p85
asS'compiler'
p86
S'gcc-5'
p87
ss(S'relations'
p88
tp89
(dp90
S'initramfs-fallback'
p91
S'linux-initramfs-tool'
p92
sS'gcc-5'
p93
S'gcc-5'
p94
sS'initramfs-tools'
p95
S'initramfs-tools'
p96
ss(S'version'
p97
tp98
(dp99
S'abiname'
p100
S'4.3-3'
p101
sS'source'
p102
V4.3.3-1
p103
sS'upstream'
p104
S'4.3'
p105
sstp106
Rp107
.