ccopy_reg
_reconstructor
p0
(cdebian_linux.config
ConfigCore
p1
c__builtin__
dict
p2
(dp3
(S'image'
p4
S'amd64'
p5
tp6
(dp7
S'install-stem'
p8
S'vmlinuz'
p9
sS'configs'
p10
(lp11
sS'bootloaders'
p12
(lp13
S'grub-pc'
p14
aS'extlinux'
p15
aS'grub-efi-amd64'
p16
asS'suggests'
p17
S'crda'
p18
ss(S'base'
p19
g5
S'none'
p20
tp21
(dp22
S'implicit-flavour'
p23
I01
sS'flavours'
p24
(lp25
S'vclaptop-amd64'
p26
ass(S'description'
p27
g5
NS'vclaptop-amd64'
p28
tp29
(dp30
S'hardware'
p31
S'64-bit PCs'
p32
sS'hardware-long'
p33
S'PCs with AMD64 or Intel 64 processors'
p34
ss(S'abi'
p35
tp36
(dp37
S'abiname'
p38
S'3'
p39
ss(S'base'
p40
g5
tp41
(dp42
S'kernel-arch'
p43
S'x86'
p44
sS'featuresets'
p45
(lp46
S'none'
p47
ag20
ass(S'image'
p48
tp49
(dp50
S'initramfs-generators'
p51
(lp52
S'initramfs-tools'
p53
aS'initramfs-fallback'
p54
asS'type'
p55
S'plain'
p56
ss(S'description'
p57
tp58
(dp59
S'part-long-up'
p60
S'This kernel is not suitable for SMP (multi-processor,\nmulti-core or hyper-threaded) systems.'
p61
sS'part-long-xen'
p62
S'This kernel also runs on a Xen hypervisor.\nIt supports both privileged (dom0) and unprivileged (domU) operation.'
p63
ss(S'build'
p64
g5
tp65
(dp66
S'debug-info'
p67
I00
sS'image-file'
p68
S'arch/x86/boot/bzImage'
p69
ss(S'base'
p70
tp71
(dp72
S'arches'
p73
(lp74
S'amd64'
p75
asS'featuresets'
p76
(lp77
S'none'
p78
asS'compiler'
p79
S'gcc-4.9'
p80
ss(S'relations'
p81
tp82
(dp83
S'initramfs-fallback'
p84
S'linux-initramfs-tool'
p85
sS'gcc-4.9'
p86
S'gcc-4.9'
p87
sS'initramfs-tools'
p88
S'initramfs-tools'
p89
ss(S'version'
p90
tp91
(dp92
S'abiname'
p93
S'3.18-3'
p94
sS'source'
p95
V3.18.3-1
p96
sS'upstream'
p97
S'3.18'
p98
ss(S'image'
p99
g5
NS'vclaptop-amd64'
p100
tp101
(dp102
S'configs'
p103
(lp104
S'kernelarch-x86/config-arch-64'
p105
asstp106
Rp107
.