ccopy_reg
_reconstructor
p1
(cdebian_linux.config
ConfigCore
p2
c__builtin__
dict
p3
(dp4
(S'image'
S'amd64'
p5
tp6
(dp7
S'suggests'
p8
S'grub2 | grub-gfxboot | grub-legacy, crda'
p9
sS'configs'
p10
(lp11
S'kernelarch-x86/config-arch-64'
p12
ass(S'base'
p13
g5
S'none'
p14
tp15
(dp16
S'implicit-flavour'
p17
I01
sS'flavours'
p18
(lp19
S'vclaptop-amd64'
p20
ass(S'commands-image-initramfs-generators'
tp21
(dp22
S'initramfs-tools'
p23
S'update-initramfs'
p24
ss(S'abi'
tp25
(dp26
S'abiname'
p27
S'2'
ss(S'base'
g5
tp28
(dp29
S'kernel-arch'
p30
S'x86'
p31
sS'featuresets'
p32
(lp33
g14
ass(S'image'
tp34
(dp35
S'initramfs-generators'
p36
(lp37
S'initramfs-tools'
p38
aS'initramfs-fallback'
p39
asS'type'
p40
S'plain'
p41
ss(S'description'
g5
NS'vclaptop-amd64'
tp42
(dp43
S'hardware'
p44
S'64-bit PCs'
p45
sS'hardware-long'
p46
S'PCs with AMD64 or Intel 64 processors'
p47
ss(S'image'
g5
NS'vclaptop-amd64'
tp48
(dp49
S'configs'
p50
(lp51
S'kernelarch-x86/config-arch-64'
p52
ass(S'base'
tp53
(dp54
S'arches'
p55
(lp56
S'amd64'
p57
asS'featuresets'
p58
(lp59
S'none'
p60
asS'compiler'
p61
S'gcc-4.8'
p62
ss(S'relations'
tp63
(dp64
S'initramfs-fallback'
p65
S'linux-initramfs-tool'
p66
sS'gcc-4.8'
p67
S'gcc-4.8'
p68
sS'initramfs-tools'
p69
S'initramfs-tools'
p70
ss(S'version'
p71
tp72
(dp73
S'abiname'
p74
S'3.14-2'
p75
sS'source'
p76
V3.14.2-1
p77
sstRp78
.