ccopy_reg
_reconstructor
p0
(cdebian_linux.config
ConfigCore
p1
c__builtin__
dict
p2
(dp3
(S'image'
p4
S'amd64'
p5
tp6
(dp7
S'install-stem'
p8
S'vmlinuz'
p9
sS'configs'
p10
(lp11
sS'bootloaders'
p12
(lp13
S'grub-pc'
p14
aS'extlinux'
p15
aS'grub-efi-amd64'
p16
asS'suggests'
p17
S'crda'
p18
ss(S'base'
p19
g5
S'none'
p20
tp21
(dp22
S'implicit-flavour'
p23
I01
sS'flavours'
p24
(lp25
S'vclaptop-amd64'
p26
ass(S'image'
p27
g5
NS'vclaptop-amd64'
p28
tp29
(dp30
S'configs'
p31
(lp32
S'kernelarch-x86/config-arch-64'
p33
ass(S'abi'
p34
tp35
(dp36
S'abiname'
p37
S'2'
p38
ss(S'base'
p39
g5
tp40
(dp41
S'kernel-arch'
p42
S'x86'
p43
sS'featuresets'
p44
(lp45
S'none'
p46
ag20
ass(S'image'
p47
tp48
(dp49
S'initramfs-generators'
p50
(lp51
S'initramfs-tools'
p52
aS'initramfs-fallback'
p53
asS'type'
p54
S'plain'
p55
ss(S'description'
p56
tp57
(dp58
S'part-long-up'
p59
S'This kernel is not suitable for SMP (multi-processor,\nmulti-core or hyper-threaded) systems.'
p60
ss(S'build'
p61
g5
tp62
(dp63
S'debug-info'
p64
I00
sS'image-file'
p65
S'arch/x86/boot/bzImage'
p66
ss(S'base'
p67
tp68
(dp69
S'arches'
p70
(lp71
S'amd64'
p72
asS'featuresets'
p73
(lp74
S'none'
p75
asS'compiler'
p76
S'gcc-5'
p77
ss(S'version'
p78
tp79
(dp80
S'abiname'
p81
S'4.5-2'
p82
sS'source'
p83
V4.5.2-1
p84
sS'upstream'
p85
S'4.5'
p86
ss(S'relations'
p87
tp88
(dp89
S'initramfs-fallback'
p90
S'linux-initramfs-tool'
p91
sS'gcc-5'
p92
S'gcc-5'
p93
sS'initramfs-tools'
p94
S'initramfs-tools'
p95
ss(S'description'
p96
g5
NS'vclaptop-amd64'
p97
tp98
(dp99
S'hardware'
p100
S'64-bit PCs'
p101
sS'hardware-long'
p102
S'PCs with AMD64 or Intel 64 processors'
p103
sstp104
Rp105
.