ccopy_reg
_reconstructor
p1
(cdebian_linux.config
ConfigCore
p2
c__builtin__
dict
p3
(dp4
(S'description'
S'amd64'
p5
NS'vclaptop-amd64'
tp6
(dp7
S'hardware'
p8
S'64-bit PCs'
p9
sS'hardware-long'
p10
S'PCs with AMD64 or Intel 64 processors'
p11
ss(S'image'
g5
tp12
(dp13
S'suggests'
p14
S'grub2 | grub-gfxboot | grub-legacy, crda'
p15
sS'configs'
p16
(lp17
S'kernelarch-x86/config-arch-64'
p18
ass(S'base'
p19
g5
S'none'
p20
tp21
(dp22
S'implicit-flavour'
p23
I01
sS'flavours'
p24
(lp25
S'vclaptop-amd64'
p26
ass(S'commands-image-initramfs-generators'
tp27
(dp28
S'initramfs-tools'
p29
S'update-initramfs'
p30
ss(S'abi'
tp31
(dp32
S'abiname'
p33
S'1'
ss(S'base'
g5
tp34
(dp35
S'kernel-arch'
p36
S'x86'
p37
sS'featuresets'
p38
(lp39
g20
ass(S'image'
tp40
(dp41
S'initramfs-generators'
p42
(lp43
S'initramfs-tools'
p44
aS'initramfs-fallback'
p45
asS'type'
p46
S'plain'
p47
ss(S'image'
g5
NS'vclaptop-amd64'
tp48
(dp49
S'configs'
p50
(lp51
S'kernelarch-x86/config-arch-64'
p52
ass(S'base'
tp53
(dp54
S'arches'
p55
(lp56
S'amd64'
p57
asS'featuresets'
p58
(lp59
S'none'
p60
asS'compiler'
p61
S'gcc-4.7'
p62
ss(S'relations'
tp63
(dp64
S'initramfs-fallback'
p65
S'linux-initramfs-tool'
p66
sS'gcc-4.7'
p67
S'gcc-4.7'
p68
sS'initramfs-tools'
p69
S'initramfs-tools'
p70
ss(S'version'
p71
tp72
(dp73
S'abiname'
p74
S'3.7.1-1'
p75
sS'source'
p76
V3.7.1-1
p77
sstRp78
.