ccopy_reg
_reconstructor
p1
(cdebian_linux.config
ConfigCore
p2
c__builtin__
dict
p3
(dp4
(S'description'
S'amd64'
p5
NS'vclaptop-amd64'
tp6
(dp7
S'hardware'
p8
S'64-bit PCs'
p9
sS'hardware-long'
p10
S'PCs with AMD64 or Intel 64 processors'
p11
ss(S'image'
g5
tp12
(dp13
S'suggests'
p14
S'grub2 | grub-gfxboot | grub-legacy, crda'
p15
sS'configs'
p16
(lp17
S'kernelarch-x86/config-arch-64'
p18
ass(S'base'
p19
g5
S'none'
p20
tp21
(dp22
S'implicit-flavour'
p23
I01
sS'flavours'
p24
(lp25
S'vclaptop-amd64'
p26
ass(S'commands-image-initramfs-generators'
tp27
(dp28
S'initramfs-tools'
p29
S'update-initramfs'
p30
ss(S'abi'
tp31
(dp32
S'abiname'
p33
S'10.vc.1'
p34
ss(S'base'
g5
tp35
(dp36
S'kernel-arch'
p37
S'x86'
p38
sS'featuresets'
p39
(lp40
g20
ass(S'image'
tp41
(dp42
S'initramfs-generators'
p43
(lp44
S'initramfs-tools'
p45
aS'initramfs-fallback'
p46
asS'type'
p47
S'plain'
p48
ss(S'image'
g5
NS'vclaptop-amd64'
tp49
(dp50
S'configs'
p51
(lp52
S'kernelarch-x86/config-arch-64'
p53
ass(S'base'
tp54
(dp55
S'arches'
p56
(lp57
S'amd64'
p58
asS'featuresets'
p59
(lp60
S'none'
p61
asS'compiler'
p62
S'gcc-4.7'
p63
ss(S'relations'
tp64
(dp65
S'initramfs-fallback'
p66
S'linux-initramfs-tool'
p67
sS'gcc-4.7'
p68
S'gcc-4.7'
p69
sS'initramfs-tools'
p70
S'initramfs-tools'
p71
ss(S'version'
p72
tp73
(dp74
S'abiname'
p75
S'3.4.0-10.vc.1'
p76
sS'source'
p77
V3.4.0-1
p78
sstRp79
.